target datalayout = "e-m:e-p270:32:32-p271:32:32-p272:64:64-i64:64-i128:128-f80:128-n8:16:32:64-S128"
target triple = "x86_64-pc-linux-gnu"

%"class.llvm::StringRef" = type { ptr, i64 }
%"class.llvm::AsmLexer" = type <{ %"class.llvm::MCAsmLexer", ptr, ptr, %"class.llvm::StringRef", i8, i8, i8, i8, [4 x i8] }>
%"class.llvm::MCAsmLexer" = type { ptr, %"class.llvm::SmallVector", %"class.llvm::SMLoc", %"class.std::__cxx11::basic_string", ptr, i8, i8, i8, i8, i8, i8, i8, i8, i8, i32, i8, i8, ptr }
%"class.llvm::SmallVector" = type { %"class.llvm::SmallVectorImpl", %"struct.llvm::SmallVectorStorage" }
%"class.llvm::SmallVectorImpl" = type { %"class.llvm::SmallVectorTemplateBase" }
%"class.llvm::SmallVectorTemplateBase" = type { %"class.llvm::SmallVectorTemplateCommon" }
%"class.llvm::SmallVectorTemplateCommon" = type { %"class.llvm::SmallVectorBase" }
%"class.llvm::SmallVectorBase" = type { ptr, i32, i32 }
%"struct.llvm::SmallVectorStorage" = type { [40 x i8] }
%"class.llvm::SMLoc" = type { ptr }
%"class.std::__cxx11::basic_string" = type { %"struct.std::__cxx11::basic_string<char>::_Alloc_hider", i64, %union.anon }
%"struct.std::__cxx11::basic_string<char>::_Alloc_hider" = type { ptr }
%union.anon = type { i64, [8 x i8] }
%"class.llvm::MCAsmInfo" = type <{ ptr, i32, i32, i8, i8, i8, i8, i8, i8, [2 x i8], i32, i32, i8, i8, i8, [5 x i8], ptr, %"class.llvm::StringRef", i8, i8, i8, [5 x i8], ptr, i8, i8, i8, [5 x i8], %"class.llvm::StringRef", %"class.llvm::StringRef", %"class.llvm::StringRef", ptr, ptr, ptr, ptr, ptr, i32, i8, i8, i8, i8, i8, i8, i8, i8, i8, i8, [2 x i8], ptr, i8, [7 x i8], ptr, ptr, ptr, ptr, i32, [4 x i8], ptr, ptr, ptr, ptr, i8, [7 x i8], ptr, ptr, ptr, ptr, ptr, ptr, i8, i8, i8, i8, i32, ptr, i8, i8, [2 x i8], i32, i8, i8, i8, i8, i8, i8, i8, i8, ptr, ptr, i8, i8, [2 x i8], i32, i32, i32, i32, i32, i8, [3 x i8], i32, i8, [3 x i8], i32, i8, i8, i8, i8, i8, i8, i8, i8, i8, [7 x i8], %"class.std::vector", %"struct.std::pair", i8, i8, i8, i8, i32, i8, i8, i8, i8, [4 x i8] }>
%"class.std::vector" = type { %"struct.std::_Vector_base" }
%"struct.std::_Vector_base" = type { %"struct.std::_Vector_base<llvm::MCCFIInstruction, std::allocator<llvm::MCCFIInstruction>>::_Vector_impl" }
%"struct.std::_Vector_base<llvm::MCCFIInstruction, std::allocator<llvm::MCCFIInstruction>>::_Vector_impl" = type { %"struct.std::_Vector_base<llvm::MCCFIInstruction, std::allocator<llvm::MCCFIInstruction>>::_Vector_impl_data" }
%"struct.std::_Vector_base<llvm::MCCFIInstruction, std::allocator<llvm::MCCFIInstruction>>::_Vector_impl_data" = type { ptr, ptr, ptr }
%"struct.std::pair" = type { i32, i32 }

; Function Attrs: mustprogress nounwind uwtable
define linkonce_odr hidden noundef ptr @_ZNK4llvm9MCAsmInfo18getSeparatorStringEv(ptr noundef nonnull align 8 dereferenceable(484) %0) #0 comdat align 2 {
  %2 = alloca ptr, align 8
  store ptr %0, ptr %2, align 8
  %3 = load ptr, ptr %2, align 8
  %4 = getelementptr inbounds nuw %"class.llvm::MCAsmInfo", ptr %3, i32 0, i32 16
  %5 = load ptr, ptr %4, align 8
  ret ptr %5
}

; Function Attrs: mustprogress nounwind uwtable
define dso_local noundef zeroext i1 @_ZN4llvm8AsmLexer22isAtStatementSeparatorEPKc(ptr noundef nonnull align 8 dereferenceable(180) %0, ptr noundef %1) #0 align 2 {
  %3 = alloca ptr, align 8
  %4 = alloca ptr, align 8
  store ptr %0, ptr %3, align 8
  store ptr %1, ptr %4, align 8
  %5 = load ptr, ptr %3, align 8
  %6 = load ptr, ptr %4, align 8
  %7 = getelementptr inbounds nuw %"class.llvm::AsmLexer", ptr %5, i32 0, i32 1
  %8 = load ptr, ptr %7, align 8
  %9 = call noundef ptr @_ZNK4llvm9MCAsmInfo18getSeparatorStringEv(ptr noundef nonnull align 8 dereferenceable(484) %8)
  %10 = getelementptr inbounds nuw %"class.llvm::AsmLexer", ptr %5, i32 0, i32 1
  %11 = load ptr, ptr %10, align 8
  %12 = call noundef ptr @_ZNK4llvm9MCAsmInfo18getSeparatorStringEv(ptr noundef nonnull align 8 dereferenceable(484) %11)
  %13 = call i64 @strlen(ptr noundef %12) #11
  %14 = call i32 @strncmp(ptr noundef %6, ptr noundef %9, i64 noundef %13) #11
  %15 = icmp eq i32 %14, 0
  ret i1 %15
}