; Function Attrs: mustprogress nofree nounwind willreturn memory(read, inaccessiblemem: none) uwtable
define dso_local noundef zeroext i1 @_ZN4llvm8AsmLexer22isAtStatementSeparatorEPKc(ptr nocapture noundef nonnull readonly align 8 dereferenceable(180) %0, ptr nocapture noundef readonly %1) local_unnamed_addr #10 align 2 {
  %3 = getelementptr inbounds nuw i8, ptr %0, i64 144
  %4 = load ptr, ptr %3, align 8
  %5 = getelementptr inbounds nuw i8, ptr %4, i64 40
  %6 = load ptr, ptr %5, align 8
  %7 = tail call i64 @strlen(ptr noundef nonnull dereferenceable(1) %6) #23
  %8 = tail call i32 @strncmp(ptr noundef %1, ptr noundef %6, i64 noundef %7) #23
  %9 = icmp eq i32 %8, 0
  ret i1 %9
}